target datalayout = "e-m:e-p270:32:32-p271:32:32-p272:64:64-i64:64-i128:128-f80:128-n8:16:32:64-S128"
target triple = "x86_64-pc-linux-gnu"

%struct._packet_info = type { ptr, ptr, i32, i32, %struct.nstime_t, %struct.nstime_t, %struct.nstime_t, i8, ptr, ptr, ptr, ptr, %struct._address, %struct._address, %struct._address, %struct._address, %struct._address, %struct._address, i32, ptr, i8, [3 x i8], %struct.anon.1, i32, i32, i32, i32, ptr, i8, ptr, ptr, i16, i16, i32, i32, i16, i32, i32, ptr, ptr, ptr, i8, i8, i16, i16, i16, i32, i16, i16, ptr, ptr, ptr, ptr, ptr, i32, i32 }
%struct.nstime_t = type { i64, i32 }
%struct._address = type { i32, i32, ptr, ptr }
%struct.anon.1 = type { i8, [3 x i8] }

@.str.1549 = private unnamed_addr constant [8 x i8] c"%s : %s\00", align 1

; Function Attrs: null_pointer_is_valid sspstrong uwtable
define internal void @get_amqp_1_0_type_value_formatter(ptr noundef %0, ptr noundef %1, i32 noundef %2, i32 noundef %3, ptr noundef %4, ptr noundef %5, ptr noundef %6) #0 {
  %8 = alloca ptr, align 8
  %9 = alloca ptr, align 8
  %10 = alloca i32, align 4
  %11 = alloca i32, align 4
  %12 = alloca ptr, align 8
  %13 = alloca ptr, align 8
  %14 = alloca ptr, align 8
  %15 = alloca i32, align 4
  %16 = alloca i32, align 4
  %17 = alloca ptr, align 8
  %18 = alloca ptr, align 8
  %19 = alloca ptr, align 8
  %20 = alloca i32, align 4
  store ptr %0, ptr %8, align 8
  store ptr %1, ptr %9, align 8
  store i32 %2, ptr %10, align 4
  store i32 %3, ptr %11, align 4
  store ptr %4, ptr %12, align 8
  store ptr %5, ptr %13, align 8
  store ptr %6, ptr %14, align 8
  call void @llvm.lifetime.start.p0(i64 4, ptr %15) #11
  call void @llvm.lifetime.start.p0(i64 4, ptr %16) #11
  store i32 0, ptr %16, align 4
  call void @llvm.lifetime.start.p0(i64 8, ptr %17) #11
  store ptr null, ptr %17, align 8
  call void @llvm.lifetime.start.p0(i64 8, ptr %18) #11
  store ptr null, ptr %18, align 8
  call void @llvm.lifetime.start.p0(i64 8, ptr %19) #11
  store ptr null, ptr %19, align 8
  call void @llvm.lifetime.start.p0(i64 4, ptr %20) #11
  %21 = load ptr, ptr %8, align 8
  %22 = load i32, ptr %10, align 4
  %23 = call i32 @get_amqp_1_0_type_formatter(ptr noundef %21, i32 noundef %22, ptr noundef %11, ptr noundef %18, ptr noundef %16, ptr noundef %17, ptr noundef %20)
  store i32 %23, ptr %15, align 4
  %24 = load ptr, ptr %12, align 8
  %25 = icmp ne ptr %24, null
  br i1 %25, label %29, label %26

26:                                               ; preds = %7
  %27 = load ptr, ptr %18, align 8
  %28 = icmp ne ptr %27, null
  br i1 %28, label %29, label %48

29:                                               ; preds = %26, %7
  %30 = load ptr, ptr %18, align 8
  %31 = icmp eq ptr %30, null
  br i1 %31, label %32, label %34

32:                                               ; preds = %29
  %33 = load ptr, ptr %12, align 8
  store ptr %33, ptr %19, align 8
  br label %47

34:                                               ; preds = %29
  %35 = load ptr, ptr %12, align 8
  %36 = icmp eq ptr %35, null
  br i1 %36, label %37, label %39

37:                                               ; preds = %34
  %38 = load ptr, ptr %18, align 8
  store ptr %38, ptr %19, align 8
  br label %46

39:                                               ; preds = %34
  %40 = load ptr, ptr %9, align 8
  %41 = getelementptr inbounds nuw %struct._packet_info, ptr %40, i32 0, i32 51
  %42 = load ptr, ptr %41, align 8
  %43 = load ptr, ptr %12, align 8
  %44 = load ptr, ptr %18, align 8
  %45 = call noalias ptr (ptr, ptr, ...) @wmem_strdup_printf(ptr noundef %42, ptr noundef @.str.1549, ptr noundef %43, ptr noundef %44)
  store ptr %45, ptr %19, align 8
  br label %46

46:                                               ; preds = %39, %37
  br label %47

47:                                               ; preds = %46, %32
  br label %48

48:                                               ; preds = %47, %26
  %49 = load i32, ptr %20, align 4
  %50 = load i32, ptr %10, align 4
  %51 = add i32 %50, %49
  store i32 %51, ptr %10, align 4
  %52 = load ptr, ptr %8, align 8
  %53 = load ptr, ptr %9, align 8
  %54 = load i32, ptr %15, align 4
  %55 = trunc i32 %54 to i8
  %56 = load i32, ptr %10, align 4
  %57 = load i32, ptr %11, align 4
  %58 = load ptr, ptr %19, align 8
  %59 = load i32, ptr %16, align 4
  %60 = load ptr, ptr %17, align 8
  %61 = load ptr, ptr %13, align 8
  %62 = load ptr, ptr %14, align 8
  call void @get_amqp_1_0_value_formatter(ptr noundef %52, ptr noundef %53, i8 noundef zeroext %55, i32 noundef %56, i32 noundef %57, ptr noundef %58, i32 noundef %59, ptr noundef %60, ptr noundef %61, ptr noundef %62)
  %63 = load i32, ptr %20, align 4
  %64 = load ptr, ptr %13, align 8
  %65 = load i32, ptr %64, align 4
  %66 = add i32 %65, %63
  store i32 %66, ptr %64, align 4
  call void @llvm.lifetime.end.p0(i64 4, ptr %20) #11
  call void @llvm.lifetime.end.p0(i64 8, ptr %19) #11
  call void @llvm.lifetime.end.p0(i64 8, ptr %18) #11
  call void @llvm.lifetime.end.p0(i64 8, ptr %17) #11
  call void @llvm.lifetime.end.p0(i64 4, ptr %16) #11
  call void @llvm.lifetime.end.p0(i64 4, ptr %15) #11
  ret void
}