; Function Attrs: null_pointer_is_valid sspstrong uwtable
define internal fastcc void @get_amqp_1_0_type_value_formatter(ptr noundef %0, ptr noundef %1, i32 noundef %2, i32 noundef %3, ptr noundef %4, ptr noundef captures(none) %5, ptr noundef %6) unnamed_addr #0 {
  %8 = alloca i32, align 4
  %9 = alloca i32, align 4
  %10 = alloca ptr, align 8
  %11 = alloca ptr, align 8
  %12 = alloca i32, align 4
  store i32 %3, ptr %8, align 4
  call void @llvm.lifetime.start.p0(i64 4, ptr nonnull %9) #14
  store i32 0, ptr %9, align 4
  call void @llvm.lifetime.start.p0(i64 8, ptr nonnull %10) #14
  store ptr null, ptr %10, align 8
  call void @llvm.lifetime.start.p0(i64 8, ptr nonnull %11) #14
  store ptr null, ptr %11, align 8
  call void @llvm.lifetime.start.p0(i64 4, ptr nonnull %12) #14
  %13 = call fastcc i32 @get_amqp_1_0_type_formatter(ptr noundef %0, i32 noundef %2, ptr noundef nonnull %8, ptr noundef nonnull %11, ptr noundef nonnull %9, ptr noundef nonnull %10, ptr noundef nonnull %12)
  %14 = icmp ne ptr %4, null
  %15 = load ptr, ptr %11, align 8
  %16 = icmp ne ptr %15, null
  %or.cond = select i1 %14, i1 true, i1 %16
  br i1 %or.cond, label %17, label %25

17:                                               ; preds = %7
  %18 = icmp eq ptr %15, null
  br i1 %18, label %25, label %19

19:                                               ; preds = %17
  %20 = icmp eq ptr %4, null
  br i1 %20, label %25, label %21

21:                                               ; preds = %19
  %22 = getelementptr inbounds nuw i8, ptr %1, i64 408
  %23 = load ptr, ptr %22, align 8
  %24 = tail call noalias ptr (ptr, ptr, ...) @wmem_strdup_printf(ptr noundef %23, ptr noundef nonnull @.str.1549, ptr noundef nonnull %4, ptr noundef nonnull %15)
  br label %25

25:                                               ; preds = %19, %17, %21, %7
  %.0 = phi ptr [ %24, %21 ], [ null, %7 ], [ %4, %17 ], [ %15, %19 ]
  %26 = load i32, ptr %12, align 4
  %27 = add i32 %26, %2
  %28 = trunc nuw i32 %13 to i8
  %29 = load i32, ptr %8, align 4
  %30 = load i32, ptr %9, align 4
  %31 = load ptr, ptr %10, align 8
  tail call fastcc void @get_amqp_1_0_value_formatter(ptr noundef %0, ptr noundef %1, i8 noundef zeroext %28, i32 noundef %27, i32 noundef %29, ptr noundef %.0, i32 noundef %30, ptr noundef %31, ptr noundef %5, ptr noundef %6)
  %32 = load i32, ptr %5, align 4
  %33 = add i32 %32, %26
  store i32 %33, ptr %5, align 4
  call void @llvm.lifetime.end.p0(i64 4, ptr nonnull %12) #14
  call void @llvm.lifetime.end.p0(i64 8, ptr nonnull %11) #14
  call void @llvm.lifetime.end.p0(i64 8, ptr nonnull %10) #14
  call void @llvm.lifetime.end.p0(i64 4, ptr nonnull %9) #14
  ret void
}